target datalayout = "e-m:e-p270:32:32-p271:32:32-p272:64:64-i64:64-i128:128-f80:128-n8:16:32:64-S128"
target triple = "x86_64-pc-linux-gnu"

@hf_x11_unused = internal global i32 0, align 4
@hf_x11_struct_xkb_SASetMods = internal global i32 0, align 4
@hf_x11_struct_xkb_SASetMods_type = internal global i32 0, align 4
@hf_x11_struct_xkb_SASetMods_flags = internal global i32 0, align 4
@hf_x11_struct_xkb_SASetMods_mask = internal global i32 0, align 4
@hf_x11_struct_xkb_SASetMods_realMods = internal global i32 0, align 4
@hf_x11_struct_xkb_SASetMods_vmodsHigh = internal global i32 0, align 4
@hf_x11_struct_xkb_SASetMods_vmodsLow = internal global i32 0, align 4
@ett_x11_rectangle = internal global i32 0, align 4
@struct_xkb_SASetMods.flags_bits = internal constant [4 x ptr] [ptr @hf_x11_struct_xkb_SASetMods_flags_mask_ClearLocks, ptr @hf_x11_struct_xkb_SASetMods_flags_mask_LatchToLock, ptr @hf_x11_struct_xkb_SASetMods_flags_mask_GroupAbsolute, ptr null], align 16

; Function Attrs: null_pointer_is_valid sspstrong uwtable
define internal void @struct_xkb_SASetMods(ptr noundef %0, ptr noundef %1, ptr noundef %2, i32 noundef %3, i32 noundef %4) #1 {
  %6 = alloca ptr, align 8
  %7 = alloca ptr, align 8
  %8 = alloca ptr, align 8
  %9 = alloca i32, align 4
  %10 = alloca i32, align 4
  %11 = alloca i32, align 4
  %12 = alloca ptr, align 8
  %13 = alloca ptr, align 8
  store ptr %0, ptr %6, align 8
  store ptr %1, ptr %7, align 8
  store ptr %2, ptr %8, align 8
  store i32 %3, ptr %9, align 4
  store i32 %4, ptr %10, align 4
  call void @llvm.lifetime.start.p0(i64 4, ptr %11) #11
  store i32 0, ptr %11, align 4
  br label %14

14:                                               ; preds = %98, %5
  %15 = load i32, ptr %11, align 4
  %16 = load i32, ptr %10, align 4
  %17 = icmp slt i32 %15, %16
  br i1 %17, label %18, label %101

18:                                               ; preds = %14
  call void @llvm.lifetime.start.p0(i64 8, ptr %12) #11
  call void @llvm.lifetime.start.p0(i64 8, ptr %13) #11
  %19 = load ptr, ptr %8, align 8
  %20 = load i32, ptr @hf_x11_struct_xkb_SASetMods, align 4
  %21 = load ptr, ptr %6, align 8
  %22 = load ptr, ptr %7, align 8
  %23 = load i32, ptr %22, align 4
  %24 = call ptr @proto_tree_add_item(ptr noundef %19, i32 noundef %20, ptr noundef %21, i32 noundef %23, i32 noundef 8, i32 noundef 0)
  store ptr %24, ptr %12, align 8
  %25 = load ptr, ptr %12, align 8
  %26 = load i32, ptr @ett_x11_rectangle, align 4
  %27 = call ptr @proto_item_add_subtree(ptr noundef %25, i32 noundef %26)
  store ptr %27, ptr %13, align 8
  %28 = load ptr, ptr %6, align 8
  %29 = load ptr, ptr %7, align 8
  %30 = load ptr, ptr %13, align 8
  %31 = load i32, ptr @hf_x11_struct_xkb_SASetMods_type, align 4
  %32 = load i32, ptr %9, align 4
  %33 = call i32 @field8(ptr noundef %28, ptr noundef %29, ptr noundef %30, i32 noundef %31, i32 noundef %32)
  %34 = load ptr, ptr %13, align 8
  %35 = load ptr, ptr %6, align 8
  %36 = load ptr, ptr %7, align 8
  %37 = load i32, ptr %36, align 4
  %38 = load i32, ptr @hf_x11_struct_xkb_SASetMods_flags, align 4
  %39 = load i32, ptr @ett_x11_rectangle, align 4
  %40 = load i32, ptr %9, align 4
  %41 = call ptr @proto_tree_add_bitmask(ptr noundef %34, ptr noundef %35, i32 noundef %37, i32 noundef %38, i32 noundef %39, ptr noundef @struct_xkb_SASetMods.flags_bits, i32 noundef %40)
  %42 = load ptr, ptr %7, align 8
  %43 = load i32, ptr %42, align 4
  %44 = add i32 %43, 1
  store i32 %44, ptr %42, align 4
  %45 = load ptr, ptr %13, align 8
  %46 = load ptr, ptr %6, align 8
  %47 = load ptr, ptr %7, align 8
  %48 = load i32, ptr %47, align 4
  %49 = load i32, ptr @hf_x11_struct_xkb_SASetMods_mask, align 4
  %50 = load i32, ptr @ett_x11_rectangle, align 4
  %51 = load i32, ptr %9, align 4
  %52 = call ptr @proto_tree_add_bitmask(ptr noundef %45, ptr noundef %46, i32 noundef %48, i32 noundef %49, i32 noundef %50, ptr noundef @struct_xkb_SASetMods.mask_bits, i32 noundef %51)
  %53 = load ptr, ptr %7, align 8
  %54 = load i32, ptr %53, align 4
  %55 = add i32 %54, 1
  store i32 %55, ptr %53, align 4
  %56 = load ptr, ptr %13, align 8
  %57 = load ptr, ptr %6, align 8
  %58 = load ptr, ptr %7, align 8
  %59 = load i32, ptr %58, align 4
  %60 = load i32, ptr @hf_x11_struct_xkb_SASetMods_realMods, align 4
  %61 = load i32, ptr @ett_x11_rectangle, align 4
  %62 = load i32, ptr %9, align 4
  %63 = call ptr @proto_tree_add_bitmask(ptr noundef %56, ptr noundef %57, i32 noundef %59, i32 noundef %60, i32 noundef %61, ptr noundef @struct_xkb_SASetMods.realMods_bits, i32 noundef %62)
  %64 = load ptr, ptr %7, align 8
  %65 = load i32, ptr %64, align 4
  %66 = add i32 %65, 1
  store i32 %66, ptr %64, align 4
  %67 = load ptr, ptr %13, align 8
  %68 = load ptr, ptr %6, align 8
  %69 = load ptr, ptr %7, align 8
  %70 = load i32, ptr %69, align 4
  %71 = load i32, ptr @hf_x11_struct_xkb_SASetMods_vmodsHigh, align 4
  %72 = load i32, ptr @ett_x11_rectangle, align 4
  %73 = load i32, ptr %9, align 4
  %74 = call ptr @proto_tree_add_bitmask(ptr noundef %67, ptr noundef %68, i32 noundef %70, i32 noundef %71, i32 noundef %72, ptr noundef @struct_xkb_SASetMods.vmodsHigh_bits, i32 noundef %73)
  %75 = load ptr, ptr %7, align 8
  %76 = load i32, ptr %75, align 4
  %77 = add i32 %76, 1
  store i32 %77, ptr %75, align 4
  %78 = load ptr, ptr %13, align 8
  %79 = load ptr, ptr %6, align 8
  %80 = load ptr, ptr %7, align 8
  %81 = load i32, ptr %80, align 4
  %82 = load i32, ptr @hf_x11_struct_xkb_SASetMods_vmodsLow, align 4
  %83 = load i32, ptr @ett_x11_rectangle, align 4
  %84 = load i32, ptr %9, align 4
  %85 = call ptr @proto_tree_add_bitmask(ptr noundef %78, ptr noundef %79, i32 noundef %81, i32 noundef %82, i32 noundef %83, ptr noundef @struct_xkb_SASetMods.vmodsLow_bits, i32 noundef %84)
  %86 = load ptr, ptr %7, align 8
  %87 = load i32, ptr %86, align 4
  %88 = add i32 %87, 1
  store i32 %88, ptr %86, align 4
  %89 = load ptr, ptr %13, align 8
  %90 = load i32, ptr @hf_x11_unused, align 4
  %91 = load ptr, ptr %6, align 8
  %92 = load ptr, ptr %7, align 8
  %93 = load i32, ptr %92, align 4
  %94 = call ptr @proto_tree_add_item(ptr noundef %89, i32 noundef %90, ptr noundef %91, i32 noundef %93, i32 noundef 2, i32 noundef 0)
  %95 = load ptr, ptr %7, align 8
  %96 = load i32, ptr %95, align 4
  %97 = add i32 %96, 2
  store i32 %97, ptr %95, align 4
  call void @llvm.lifetime.end.p0(i64 8, ptr %13) #11
  call void @llvm.lifetime.end.p0(i64 8, ptr %12) #11
  br label %98

98:                                               ; preds = %18
  %99 = load i32, ptr %11, align 4
  %100 = add i32 %99, 1
  store i32 %100, ptr %11, align 4
  br label %14, !llvm.loop !158

101:                                              ; preds = %14
  call void @llvm.lifetime.end.p0(i64 4, ptr %11) #11
  ret void
}