; Function Attrs: null_pointer_is_valid sspstrong uwtable
define internal fastcc void @struct_xkb_SASetMods(ptr noundef %0, ptr noundef captures(none) %1, ptr noundef %2, i32 noundef %3) unnamed_addr #1 {
.critedge:
  %4 = load i32, ptr @hf_x11_struct_xkb_SASetMods, align 4
  %5 = load i32, ptr %1, align 4
  %6 = tail call ptr @proto_tree_add_item(ptr noundef %2, i32 noundef %4, ptr noundef %0, i32 noundef %5, i32 noundef 8, i32 noundef 0)
  %7 = load i32, ptr @ett_x11_rectangle, align 4
  %8 = tail call ptr @proto_item_add_subtree(ptr noundef %6, i32 noundef %7)
  %9 = load i32, ptr @hf_x11_struct_xkb_SASetMods_type, align 4
  %10 = tail call fastcc i32 @field8(ptr noundef %0, ptr noundef %1, ptr noundef %8, i32 noundef %9, i32 noundef %3)
  %11 = load i32, ptr %1, align 4
  %12 = load i32, ptr @hf_x11_struct_xkb_SASetMods_flags, align 4
  %13 = load i32, ptr @ett_x11_rectangle, align 4
  %14 = tail call ptr @proto_tree_add_bitmask(ptr noundef %8, ptr noundef %0, i32 noundef %11, i32 noundef %12, i32 noundef %13, ptr noundef nonnull @struct_xkb_SASetMods.flags_bits, i32 noundef %3)
  %15 = load i32, ptr %1, align 4
  %16 = add i32 %15, 1
  store i32 %16, ptr %1, align 4
  %17 = load i32, ptr @hf_x11_struct_xkb_SASetMods_mask, align 4
  %18 = load i32, ptr @ett_x11_rectangle, align 4
  %19 = tail call ptr @proto_tree_add_bitmask(ptr noundef %8, ptr noundef %0, i32 noundef %16, i32 noundef %17, i32 noundef %18, ptr noundef nonnull @struct_xkb_SASetMods.mask_bits, i32 noundef %3)
  %20 = load i32, ptr %1, align 4
  %21 = add i32 %20, 1
  store i32 %21, ptr %1, align 4
  %22 = load i32, ptr @hf_x11_struct_xkb_SASetMods_realMods, align 4
  %23 = load i32, ptr @ett_x11_rectangle, align 4
  %24 = tail call ptr @proto_tree_add_bitmask(ptr noundef %8, ptr noundef %0, i32 noundef %21, i32 noundef %22, i32 noundef %23, ptr noundef nonnull @struct_xkb_SASetMods.realMods_bits, i32 noundef %3)
  %25 = load i32, ptr %1, align 4
  %26 = add i32 %25, 1
  store i32 %26, ptr %1, align 4
  %27 = load i32, ptr @hf_x11_struct_xkb_SASetMods_vmodsHigh, align 4
  %28 = load i32, ptr @ett_x11_rectangle, align 4
  %29 = tail call ptr @proto_tree_add_bitmask(ptr noundef %8, ptr noundef %0, i32 noundef %26, i32 noundef %27, i32 noundef %28, ptr noundef nonnull @struct_xkb_SASetMods.vmodsHigh_bits, i32 noundef %3)
  %30 = load i32, ptr %1, align 4
  %31 = add i32 %30, 1
  store i32 %31, ptr %1, align 4
  %32 = load i32, ptr @hf_x11_struct_xkb_SASetMods_vmodsLow, align 4
  %33 = load i32, ptr @ett_x11_rectangle, align 4
  %34 = tail call ptr @proto_tree_add_bitmask(ptr noundef %8, ptr noundef %0, i32 noundef %31, i32 noundef %32, i32 noundef %33, ptr noundef nonnull @struct_xkb_SASetMods.vmodsLow_bits, i32 noundef %3)
  %35 = load i32, ptr %1, align 4
  %36 = add i32 %35, 1
  store i32 %36, ptr %1, align 4
  %37 = load i32, ptr @hf_x11_unused, align 4
  %38 = tail call ptr @proto_tree_add_item(ptr noundef %8, i32 noundef %37, ptr noundef %0, i32 noundef %36, i32 noundef 2, i32 noundef 0)
  %39 = load i32, ptr %1, align 4
  %40 = add i32 %39, 2
  store i32 %40, ptr %1, align 4
  ret void
}